; Function Attrs: mustprogress nounwind uwtable
define void @_ZN5arrow2io20BufferedOutputStreamD2Ev(ptr noundef nonnull align 8 dereferenceable(16) %this, ptr nocapture noundef readonly %vtt) unnamed_addr #2 align 2 personality ptr @__gxx_personality_v0 {
entry:
  %0 = load ptr, ptr %vtt, align 8
  store ptr %0, ptr %this, align 8
  %1 = getelementptr inbounds i8, ptr %vtt, i64 24
  %2 = load ptr, ptr %1, align 8
  %vbase.offset.ptr = getelementptr i8, ptr %0, i64 -24
  %vbase.offset = load i64, ptr %vbase.offset.ptr, align 8
  %add.ptr = getelementptr inbounds i8, ptr %this, i64 %vbase.offset
  store ptr %2, ptr %add.ptr, align 8
  %vtable3 = load ptr, ptr %this, align 8
  %vbase.offset.ptr4 = getelementptr i8, ptr %vtable3, i64 -24
  %vbase.offset5 = load i64, ptr %vbase.offset.ptr4, align 8
  %add.ptr6 = getelementptr inbounds i8, ptr %this, i64 %vbase.offset5
  invoke void @_ZN5arrow2io8internal19CloseFromDestructorEPNS0_13FileInterfaceE(ptr noundef nonnull %add.ptr6)
          to label %invoke.cont unwind label %terminate.lpad

invoke.cont:                                      ; preds = %entry
  %impl_ = getelementptr inbounds i8, ptr %this, i64 8
  %3 = load ptr, ptr %impl_, align 8
  %cmp.not.i = icmp eq ptr %3, null
  br i1 %cmp.not.i, label %_ZNSt10unique_ptrIN5arrow2io20BufferedOutputStream4ImplESt14default_deleteIS3_EED2Ev.exit, label %_ZNKSt14default_deleteIN5arrow2io20BufferedOutputStream4ImplEEclEPS3_.exit.i

_ZNKSt14default_deleteIN5arrow2io20BufferedOutputStream4ImplEEclEPS3_.exit.i: ; preds = %invoke.cont
  tail call void @_ZN5arrow2io20BufferedOutputStream4ImplD2Ev(ptr noundef nonnull align 8 dereferenceable(120) %3) #21
  tail call void @_ZdlPv(ptr noundef nonnull %3) #22
  br label %_ZNSt10unique_ptrIN5arrow2io20BufferedOutputStream4ImplESt14default_deleteIS3_EED2Ev.exit

_ZNSt10unique_ptrIN5arrow2io20BufferedOutputStream4ImplESt14default_deleteIS3_EED2Ev.exit: ; preds = %invoke.cont, %_ZNKSt14default_deleteIN5arrow2io20BufferedOutputStream4ImplEEclEPS3_.exit.i
  store ptr null, ptr %impl_, align 8
  ret void

terminate.lpad:                                   ; preds = %entry
  %4 = landingpad { ptr, i32 }
          catch ptr null
  %5 = extractvalue { ptr, i32 } %4, 0
  tail call void @__clang_call_terminate(ptr %5) #23
  unreachable
}